; Function Attrs: mustprogress uwtable
define noundef range(i32 0, 65536) i32 @_ZN17grpc_event_engine12experimental22ResolvedAddressGetPortERKNS0_11EventEngine15ResolvedAddressE(ptr noundef nonnull align 4 dereferenceable(132) %0) local_unnamed_addr #3 personality ptr @__gxx_personality_v0 {
  %2 = alloca i16, align 2
  %3 = alloca %"class.absl::lts_20240722::log_internal::LogMessage", align 8
  %4 = tail call noundef ptr @_ZNK17grpc_event_engine12experimental11EventEngine15ResolvedAddress7addressEv(ptr noundef nonnull align 4 dereferenceable(132) %0)
  %5 = load i16, ptr %4, align 2, !tbaa !3
  switch i16 %5, label %6 [
    i16 2, label %.sink.split
    i16 10, label %.sink.split
    i16 1, label %17
    i16 40, label %17
  ]

6:                                                ; preds = %1
  call void @llvm.lifetime.start.p0(i64 16, ptr nonnull %3) #25
  call void @_ZN4absl12lts_2024072212log_internal10LogMessageC1EPKciNS2_8ErrorTagE(ptr noundef nonnull align 8 dereferenceable(16) %3, ptr noundef nonnull @.str, i32 noundef 280) #26
  invoke void @_ZN4absl12lts_2024072212log_internal10LogMessage19CopyToEncodedBufferILNS2_10StringTypeE0EEEvSt17basic_string_viewIcSt11char_traitsIcEE(ptr noundef nonnull align 8 dereferenceable(16) %3, i64 22, ptr nonnull @.str.4)
          to label %_ZN4absl12lts_2024072212log_internal10LogMessagelsILi23EEERS2_RAT__Kc.exit unwind label %12

_ZN4absl12lts_2024072212log_internal10LogMessagelsILi23EEERS2_RAT__Kc.exit: ; preds = %6
  %7 = load i16, ptr %4, align 2, !tbaa !3
  call void @llvm.lifetime.start.p0(i64 2, ptr nonnull %2)
  store i16 %7, ptr %2, align 2, !tbaa !29
  %8 = invoke noundef nonnull align 8 dereferenceable(16) ptr @_ZN4absl12lts_2024072212log_internal10LogMessagelsItTnNSt9enable_ifIXntsr4absl16HasAbslStringifyIT_EE5valueEiE4typeELi0EEERS2_RKS5_(ptr noundef nonnull align 8 dereferenceable(16) %3, ptr noundef nonnull align 2 dereferenceable(2) %2)
          to label %9 unwind label %12

9:                                                ; preds = %_ZN4absl12lts_2024072212log_internal10LogMessagelsILi23EEERS2_RAT__Kc.exit
  call void @llvm.lifetime.end.p0(i64 2, ptr nonnull %2)
  %10 = invoke noundef nonnull align 8 dereferenceable(16) ptr @_ZN4absl12lts_2024072212log_internal10LogMessagelsILi27EEERS2_RAT__Kc(ptr noundef nonnull align 8 dereferenceable(16) %8, ptr noundef nonnull align 1 dereferenceable(27) @.str.5)
          to label %11 unwind label %12

11:                                               ; preds = %9
  call void @_ZN4absl12lts_2024072212log_internal10LogMessageD1Ev(ptr noundef nonnull align 8 dereferenceable(16) %3) #28
  call void @llvm.lifetime.end.p0(i64 16, ptr nonnull %3) #25
  call void @abort() #27
  unreachable

12:                                               ; preds = %_ZN4absl12lts_2024072212log_internal10LogMessagelsILi23EEERS2_RAT__Kc.exit, %6, %9
  %13 = landingpad { ptr, i32 }
          cleanup
  call void @_ZN4absl12lts_2024072212log_internal10LogMessageD1Ev(ptr noundef nonnull align 8 dereferenceable(16) %3) #28
  call void @llvm.lifetime.end.p0(i64 16, ptr nonnull %3) #25
  resume { ptr, i32 } %13

.sink.split:                                      ; preds = %1, %1
  %14 = getelementptr inbounds nuw i8, ptr %4, i64 2
  %15 = load i16, ptr %14, align 2, !tbaa !29
  %rev.i7 = tail call noundef i16 @llvm.bswap.i16(i16 %15)
  %16 = zext i16 %rev.i7 to i32
  br label %17

17:                                               ; preds = %.sink.split, %1, %1
  %.0.shrunk = phi i32 [ 1, %1 ], [ 1, %1 ], [ %16, %.sink.split ]
  ret i32 %.0.shrunk
}